target datalayout = "e-m:e-p270:32:32-p271:32:32-p272:64:64-i64:64-i128:128-f80:128-n8:16:32:64-S128"
target triple = "x86_64-pc-linux-gnu"

%struct.expert_field = type { i32, i32 }
%struct._asn1_ctx_t = type { i32, i32, i8, ptr, ptr, ptr, ptr, ptr, %struct.anon, %struct.anon.2, %struct.anon.3, ptr }
%struct.anon = type { i32, i8, i8, i8, ptr, ptr, i32, i32, ptr, ptr, ptr, %union.anon }
%union.anon = type { %struct.anon.0 }
%struct.anon.0 = type { ptr }
%struct.anon.2 = type { ptr, ptr, ptr }
%struct.anon.3 = type { i32, i8, ptr, i32, i32, ptr, ptr, ptr, %union.anon.4 }
%union.anon.4 = type { %struct.anon.5 }
%struct.anon.5 = type { ptr }
%struct.p1_address_ctx = type { i8, ptr, i8, ptr }

@.str.9 = private unnamed_addr constant [19 x i8] c"content (%u bytes)\00", align 1
@ei_p1_unknown_built_in_content_type = internal global %struct.expert_field zeroinitializer, align 4
@ett_p1_content_unknown = internal global i32 0, align 4
@.str.10 = private unnamed_addr constant [24 x i8] c" (unknown content-type)\00", align 1

; Function Attrs: null_pointer_is_valid sspstrong uwtable
define hidden i32 @dissect_p1_Content(i1 noundef zeroext %0, ptr noundef %1, i32 noundef %2, ptr noundef %3, ptr noundef %4, i32 noundef %5) #0 {
  %7 = alloca i8, align 1
  %8 = alloca ptr, align 8
  %9 = alloca i32, align 4
  %10 = alloca ptr, align 8
  %11 = alloca ptr, align 8
  %12 = alloca i32, align 4
  %13 = alloca ptr, align 8
  %14 = alloca ptr, align 8
  %15 = alloca ptr, align 8
  %16 = alloca ptr, align 8
  %17 = zext i1 %0 to i8
  store i8 %17, ptr %7, align 1
  store ptr %1, ptr %8, align 8
  store i32 %2, ptr %9, align 4
  store ptr %3, ptr %10, align 8
  store ptr %4, ptr %11, align 8
  store i32 %5, ptr %12, align 4
  call void @llvm.lifetime.start.p0(i64 8, ptr %13) #5
  call void @llvm.lifetime.start.p0(i64 8, ptr %14) #5
  %18 = load ptr, ptr %10, align 8
  %19 = getelementptr inbounds nuw %struct._asn1_ctx_t, ptr %18, i32 0, i32 9
  %20 = getelementptr inbounds nuw %struct.anon.2, ptr %19, i32 0, i32 2
  %21 = load ptr, ptr %20, align 8
  store ptr %21, ptr %14, align 8
  %22 = load i8, ptr %7, align 1, !range !6, !noundef !7
  %23 = trunc i8 %22 to i1
  %24 = load ptr, ptr %10, align 8
  %25 = load ptr, ptr %11, align 8
  %26 = load ptr, ptr %8, align 8
  %27 = load i32, ptr %9, align 4
  %28 = load i32, ptr %12, align 4
  %29 = call i32 @dissect_ber_octet_string(i1 noundef zeroext %23, ptr noundef %24, ptr noundef %25, ptr noundef %26, i32 noundef %27, i32 noundef %28, ptr noundef %13)
  store i32 %29, ptr %9, align 4
  %30 = load ptr, ptr %13, align 8
  %31 = icmp ne ptr %30, null
  br i1 %31, label %32, label %117

32:                                               ; preds = %6
  %33 = load ptr, ptr %10, align 8
  %34 = getelementptr inbounds nuw %struct._asn1_ctx_t, ptr %33, i32 0, i32 4
  %35 = load ptr, ptr %34, align 8
  %36 = load ptr, ptr %13, align 8
  %37 = call i32 @tvb_reported_length(ptr noundef %36)
  call void (ptr, ptr, ...) @proto_item_set_text(ptr noundef %35, ptr noundef @.str.9, i32 noundef %37)
  %38 = load ptr, ptr %14, align 8
  %39 = icmp ne ptr %38, null
  br i1 %39, label %40, label %71

40:                                               ; preds = %32
  %41 = load ptr, ptr %14, align 8
  %42 = getelementptr inbounds nuw %struct.p1_address_ctx, ptr %41, i32 0, i32 1
  %43 = load ptr, ptr %42, align 8
  %44 = icmp ne ptr %43, null
  br i1 %44, label %45, label %71

45:                                               ; preds = %40
  %46 = load ptr, ptr %14, align 8
  %47 = getelementptr inbounds nuw %struct.p1_address_ctx, ptr %46, i32 0, i32 1
  %48 = load ptr, ptr %47, align 8
  %49 = load ptr, ptr %13, align 8
  %50 = load ptr, ptr %10, align 8
  %51 = getelementptr inbounds nuw %struct._asn1_ctx_t, ptr %50, i32 0, i32 3
  %52 = load ptr, ptr %51, align 8
  %53 = load ptr, ptr %10, align 8
  %54 = getelementptr inbounds nuw %struct._asn1_ctx_t, ptr %53, i32 0, i32 9
  %55 = getelementptr inbounds nuw %struct.anon.2, ptr %54, i32 0, i32 1
  %56 = load ptr, ptr %55, align 8
  %57 = icmp ne ptr %56, null
  br i1 %57, label %58, label %63

58:                                               ; preds = %45
  %59 = load ptr, ptr %10, align 8
  %60 = getelementptr inbounds nuw %struct._asn1_ctx_t, ptr %59, i32 0, i32 9
  %61 = getelementptr inbounds nuw %struct.anon.2, ptr %60, i32 0, i32 1
  %62 = load ptr, ptr %61, align 8
  br label %65

63:                                               ; preds = %45
  %64 = load ptr, ptr %11, align 8
  br label %65

65:                                               ; preds = %63, %58
  %66 = phi ptr [ %62, %58 ], [ %64, %63 ]
  %67 = load ptr, ptr %10, align 8
  %68 = getelementptr inbounds nuw %struct._asn1_ctx_t, ptr %67, i32 0, i32 7
  %69 = load ptr, ptr %68, align 8
  %70 = call i32 @call_ber_oid_callback(ptr noundef %48, ptr noundef %49, i32 noundef 0, ptr noundef %52, ptr noundef %66, ptr noundef %69)
  br label %116

71:                                               ; preds = %40, %32
  %72 = load ptr, ptr %14, align 8
  %73 = icmp ne ptr %72, null
  br i1 %73, label %74, label %111

74:                                               ; preds = %71
  %75 = load ptr, ptr %14, align 8
  %76 = getelementptr inbounds nuw %struct.p1_address_ctx, ptr %75, i32 0, i32 2
  %77 = load i8, ptr %76, align 8, !range !6, !noundef !7
  %78 = trunc i8 %77 to i1
  br i1 %78, label %79, label %111

79:                                               ; preds = %74
  call void @llvm.lifetime.start.p0(i64 8, ptr %15) #5
  call void @llvm.lifetime.start.p0(i64 8, ptr %16) #5
  %80 = load ptr, ptr %10, align 8
  %81 = getelementptr inbounds nuw %struct._asn1_ctx_t, ptr %80, i32 0, i32 9
  %82 = getelementptr inbounds nuw %struct.anon.2, ptr %81, i32 0, i32 1
  %83 = load ptr, ptr %82, align 8
  %84 = icmp ne ptr %83, null
  br i1 %84, label %85, label %90

85:                                               ; preds = %79
  %86 = load ptr, ptr %10, align 8
  %87 = getelementptr inbounds nuw %struct._asn1_ctx_t, ptr %86, i32 0, i32 9
  %88 = getelementptr inbounds nuw %struct.anon.2, ptr %87, i32 0, i32 1
  %89 = load ptr, ptr %88, align 8
  br label %92

90:                                               ; preds = %79
  %91 = load ptr, ptr %11, align 8
  br label %92

92:                                               ; preds = %90, %85
  %93 = phi ptr [ %89, %85 ], [ %91, %90 ]
  %94 = load ptr, ptr %10, align 8
  %95 = getelementptr inbounds nuw %struct._asn1_ctx_t, ptr %94, i32 0, i32 3
  %96 = load ptr, ptr %95, align 8
  %97 = load ptr, ptr %13, align 8
  %98 = load ptr, ptr %8, align 8
  %99 = load i32, ptr %9, align 4
  %100 = call i32 @tvb_reported_length_remaining(ptr noundef %98, i32 noundef %99)
  %101 = call ptr @proto_tree_add_expert(ptr noundef %93, ptr noundef %96, ptr noundef @ei_p1_unknown_built_in_content_type, ptr noundef %97, i32 noundef 0, i32 noundef %100)
  store ptr %101, ptr %15, align 8
  %102 = load ptr, ptr %15, align 8
  %103 = load i32, ptr @ett_p1_content_unknown, align 4
  %104 = call ptr @proto_item_add_subtree(ptr noundef %102, i32 noundef %103)
  store ptr %104, ptr %16, align 8
  %105 = load ptr, ptr %10, align 8
  %106 = getelementptr inbounds nuw %struct._asn1_ctx_t, ptr %105, i32 0, i32 3
  %107 = load ptr, ptr %106, align 8
  %108 = load ptr, ptr %13, align 8
  %109 = load ptr, ptr %16, align 8
  %110 = call i32 @dissect_unknown_ber(ptr noundef %107, ptr noundef %108, i32 noundef 0, ptr noundef %109)
  call void @llvm.lifetime.end.p0(i64 8, ptr %16) #5
  call void @llvm.lifetime.end.p0(i64 8, ptr %15) #5
  br label %115

111:                                              ; preds = %74, %71
  %112 = load ptr, ptr %10, align 8
  %113 = getelementptr inbounds nuw %struct._asn1_ctx_t, ptr %112, i32 0, i32 4
  %114 = load ptr, ptr %113, align 8
  call void (ptr, ptr, ...) @proto_item_append_text(ptr noundef %114, ptr noundef @.str.10)
  br label %115

115:                                              ; preds = %111, %92
  br label %116

116:                                              ; preds = %115, %65
  br label %117

117:                                              ; preds = %116, %6
  %118 = load i32, ptr %9, align 4
  call void @llvm.lifetime.end.p0(i64 8, ptr %14) #5
  call void @llvm.lifetime.end.p0(i64 8, ptr %13) #5
  ret i32 %118
}