; Function Attrs: null_pointer_is_valid sspstrong uwtable
define hidden i32 @dissect_p1_Content(i1 noundef zeroext %0, ptr noundef %1, i32 noundef %2, ptr noundef %3, ptr noundef %4, i32 noundef %5) #0 {
  %7 = alloca ptr, align 8
  call void @llvm.lifetime.start.p0(i64 8, ptr nonnull %7) #5
  %8 = getelementptr inbounds nuw i8, ptr %3, i64 136
  %9 = load ptr, ptr %8, align 8
  %10 = call i32 @dissect_ber_octet_string(i1 noundef zeroext %0, ptr noundef %3, ptr noundef %4, ptr noundef %1, i32 noundef %2, i32 noundef %5, ptr noundef nonnull %7)
  %11 = load ptr, ptr %7, align 8
  %.not = icmp eq ptr %11, null
  br i1 %.not, label %46, label %12

12:                                               ; preds = %6
  %13 = getelementptr inbounds nuw i8, ptr %3, i64 24
  %14 = load ptr, ptr %13, align 8
  %15 = call i32 @tvb_reported_length(ptr noundef nonnull %11)
  call void (ptr, ptr, ...) @proto_item_set_text(ptr noundef %14, ptr noundef nonnull @.str.9, i32 noundef %15)
  %.not32 = icmp eq ptr %9, null
  br i1 %.not32, label %.critedge, label %16

16:                                               ; preds = %12
  %17 = getelementptr inbounds nuw i8, ptr %9, i64 8
  %18 = load ptr, ptr %17, align 8
  %.not33 = icmp eq ptr %18, null
  br i1 %.not33, label %28, label %19

19:                                               ; preds = %16
  %20 = load ptr, ptr %7, align 8
  %21 = getelementptr inbounds nuw i8, ptr %3, i64 16
  %22 = load ptr, ptr %21, align 8
  %23 = getelementptr inbounds nuw i8, ptr %3, i64 128
  %24 = load ptr, ptr %23, align 8
  %.not35 = icmp eq ptr %24, null
  %. = select i1 %.not35, ptr %4, ptr %24
  %25 = getelementptr inbounds nuw i8, ptr %3, i64 48
  %26 = load ptr, ptr %25, align 8
  %27 = call i32 @call_ber_oid_callback(ptr noundef nonnull %18, ptr noundef %20, i32 noundef 0, ptr noundef %22, ptr noundef %., ptr noundef %26)
  br label %46

28:                                               ; preds = %16
  %29 = getelementptr inbounds nuw i8, ptr %9, i64 16
  %30 = load i8, ptr %29, align 8, !range !6, !noundef !7
  %31 = trunc nuw i8 %30 to i1
  br i1 %31, label %32, label %.critedge

32:                                               ; preds = %28
  %33 = getelementptr inbounds nuw i8, ptr %3, i64 128
  %34 = load ptr, ptr %33, align 8
  %.not34 = icmp eq ptr %34, null
  %.36 = select i1 %.not34, ptr %4, ptr %34
  %35 = getelementptr inbounds nuw i8, ptr %3, i64 16
  %36 = load ptr, ptr %35, align 8
  %37 = load ptr, ptr %7, align 8
  %38 = call i32 @tvb_reported_length_remaining(ptr noundef %1, i32 noundef %10)
  %39 = call ptr @proto_tree_add_expert(ptr noundef %.36, ptr noundef %36, ptr noundef nonnull @ei_p1_unknown_built_in_content_type, ptr noundef %37, i32 noundef 0, i32 noundef %38)
  %40 = load i32, ptr @ett_p1_content_unknown, align 4
  %41 = call ptr @proto_item_add_subtree(ptr noundef %39, i32 noundef %40)
  %42 = load ptr, ptr %35, align 8
  %43 = load ptr, ptr %7, align 8
  %44 = call i32 @dissect_unknown_ber(ptr noundef %42, ptr noundef %43, i32 noundef 0, ptr noundef %41)
  br label %46

.critedge:                                        ; preds = %12, %28
  %45 = load ptr, ptr %13, align 8
  call void (ptr, ptr, ...) @proto_item_append_text(ptr noundef %45, ptr noundef nonnull @.str.10)
  br label %46

46:                                               ; preds = %19, %.critedge, %32, %6
  call void @llvm.lifetime.end.p0(i64 8, ptr nonnull %7) #5
  ret i32 %10
}